; ModuleID = 'bench/cmake/original/cmCursesWidget.cxx.ll'
source_filename = "bench/cmake/original/cmCursesWidget.cxx.ll"
target datalayout = "e-m:e-p270:32:32-p271:32:32-p272:64:64-i64:64-i128:128-f80:128-n8:16:32:64-S128"
target triple = "x86_64-pc-linux-gnu"

$__clang_call_terminate = comdat any

$_ZN14cmCursesWidget9PrintKeysEv = comdat any

@_ZTV14cmCursesWidget = dso_local unnamed_addr constant { [9 x ptr] } { [9 x ptr] [ptr null, ptr @_ZTI14cmCursesWidget, ptr @_ZN14cmCursesWidgetD2Ev, ptr @_ZN14cmCursesWidgetD0Ev, ptr @__cxa_pure_virtual, ptr @_ZN14cmCursesWidget4MoveEiib, ptr @_ZN14cmCursesWidget8SetValueERKNSt7__cxx1112basic_stringIcSt11char_traitsIcESaIcEEE, ptr @_ZN14cmCursesWidget8GetValueEv, ptr @_ZN14cmCursesWidget9PrintKeysEv] }, align 8
@_ZTVN10__cxxabiv117__class_type_infoE = external global [0 x ptr]
@_ZTS14cmCursesWidget = dso_local constant [17 x i8] c"14cmCursesWidget\00", align 1
@_ZTI14cmCursesWidget = dso_local constant { ptr, ptr } { ptr getelementptr inbounds (ptr, ptr @_ZTVN10__cxxabiv117__class_type_infoE, i64 2), ptr @_ZTS14cmCursesWidget }, align 8

@_ZN14cmCursesWidgetD1Ev = dso_local unnamed_addr alias void (ptr), ptr @_ZN14cmCursesWidgetD2Ev

; Function Attrs: mustprogress uwtable
define dso_local void @_ZN14cmCursesWidgetC2Eiiii(ptr noundef nonnull align 8 dereferenceable(60) %0, i32 noundef %1, i32 noundef %2, i32 noundef %3, i32 noundef %4) unnamed_addr #0 align 2 personality ptr @__gxx_personality_v0 {
  store ptr getelementptr inbounds ({ [9 x ptr] }, ptr @_ZTV14cmCursesWidget, i64 0, i32 0, i64 2), ptr %0, align 8
  %6 = getelementptr inbounds i8, ptr %0, i64 16
  tail call void @_ZNSt7__cxx1112basic_stringIcSt11char_traitsIcESaIcEEC1Ev(ptr noundef nonnull align 8 dereferenceable(32) %6) #7
  %7 = invoke ptr @new_field(i32 noundef %2, i32 noundef %1, i32 noundef %4, i32 noundef %3, i32 noundef 0, i32 noundef 0)
          to label %8 unwind label %16

8:                                                ; preds = %5
  %9 = getelementptr inbounds i8, ptr %0, i64 48
  store ptr %7, ptr %9, align 8
  %10 = invoke i32 @set_field_userptr(ptr noundef %7, ptr noundef nonnull %0)
          to label %11 unwind label %16

11:                                               ; preds = %8
  %12 = load ptr, ptr %9, align 8
  %13 = invoke i32 @field_opts_off(ptr noundef %12, i32 noundef 64)
          to label %14 unwind label %16

14:                                               ; preds = %11
  %15 = getelementptr inbounds i8, ptr %0, i64 56
  store i32 0, ptr %15, align 8
  ret void

16:                                               ; preds = %11, %8, %5
  %17 = landingpad { ptr, i32 }
          cleanup
  tail call void @_ZNSt7__cxx1112basic_stringIcSt11char_traitsIcESaIcEED1Ev(ptr noundef nonnull align 8 dereferenceable(32) %6) #7
  resume { ptr, i32 } %17
}

; Function Attrs: nounwind
declare void @_ZNSt7__cxx1112basic_stringIcSt11char_traitsIcESaIcEEC1Ev(ptr noundef nonnull align 8 dereferenceable(32)) unnamed_addr #1

declare ptr @new_field(i32 noundef, i32 noundef, i32 noundef, i32 noundef, i32 noundef, i32 noundef) local_unnamed_addr #2

declare i32 @__gxx_personality_v0(...)

declare i32 @set_field_userptr(ptr noundef, ptr noundef) local_unnamed_addr #2

declare i32 @field_opts_off(ptr noundef, i32 noundef) local_unnamed_addr #2

; Function Attrs: nounwind
declare void @_ZNSt7__cxx1112basic_stringIcSt11char_traitsIcESaIcEED1Ev(ptr noundef nonnull align 8 dereferenceable(32)) unnamed_addr #1

; Function Attrs: mustprogress nounwind uwtable
define dso_local void @_ZN14cmCursesWidgetD2Ev(ptr noundef nonnull align 8 dereferenceable(60) %0) unnamed_addr #3 align 2 personality ptr @__gxx_personality_v0 {
  store ptr getelementptr inbounds ({ [9 x ptr] }, ptr @_ZTV14cmCursesWidget, i64 0, i32 0, i64 2), ptr %0, align 8
  %2 = getelementptr inbounds i8, ptr %0, i64 48
  %3 = load ptr, ptr %2, align 8
  %.not = icmp eq ptr %3, null
  br i1 %.not, label %7, label %4

4:                                                ; preds = %1
  %5 = invoke i32 @free_field(ptr noundef nonnull %3)
          to label %6 unwind label %9

6:                                                ; preds = %4
  store ptr null, ptr %2, align 8
  br label %7

7:                                                ; preds = %6, %1
  %8 = getelementptr inbounds i8, ptr %0, i64 16
  tail call void @_ZNSt7__cxx1112basic_stringIcSt11char_traitsIcESaIcEED1Ev(ptr noundef nonnull align 8 dereferenceable(32) %8) #7
  ret void

9:                                                ; preds = %4
  %10 = landingpad { ptr, i32 }
          catch ptr null
  %11 = extractvalue { ptr, i32 } %10, 0
  tail call void @__clang_call_terminate(ptr %11) #8
  unreachable
}

declare i32 @free_field(ptr noundef) local_unnamed_addr #2

; Function Attrs: noreturn nounwind uwtable
define linkonce_odr hidden void @__clang_call_terminate(ptr noundef %0) local_unnamed_addr #4 comdat {
  %2 = tail call ptr @__cxa_begin_catch(ptr %0) #7
  tail call void @_ZSt9terminatev() #8
  unreachable
}

declare ptr @__cxa_begin_catch(ptr) local_unnamed_addr

declare void @_ZSt9terminatev() local_unnamed_addr

; Function Attrs: mustprogress noreturn nounwind memory(inaccessiblemem: write) uwtable
define dso_local void @_ZN14cmCursesWidgetD0Ev(ptr nocapture nonnull readnone align 8 %0) unnamed_addr #5 align 2 {
  tail call void @llvm.trap() #8
  unreachable
}

; Function Attrs: cold noreturn nounwind memory(inaccessiblemem: write)
declare void @llvm.trap() #6

; Function Attrs: mustprogress uwtable
define dso_local void @_ZN14cmCursesWidget4MoveEiib(ptr nocapture noundef nonnull readonly align 8 dereferenceable(60) %0, i32 noundef %1, i32 noundef %2, i1 noundef zeroext %3) unnamed_addr #0 align 2 {
  %5 = getelementptr inbounds i8, ptr %0, i64 48
  %6 = load ptr, ptr %5, align 8
  %.not = icmp eq ptr %6, null
  br i1 %.not, label %10, label %.sink.split

.sink.split:                                      ; preds = %4
  %7 = tail call i32 @move_field(ptr noundef nonnull %6, i32 noundef %2, i32 noundef %1)
  %8 = load ptr, ptr %5, align 8
  %9 = tail call i32 @set_new_page(ptr noundef %8, i1 noundef zeroext %3)
  br label %10

10:                                               ; preds = %.sink.split, %4
  ret void
}

declare i32 @move_field(ptr noundef, i32 noundef, i32 noundef) local_unnamed_addr #2

declare i32 @set_new_page(ptr noundef, i1 noundef zeroext) local_unnamed_addr #2

; Function Attrs: mustprogress uwtable
define dso_local void @_ZN14cmCursesWidget8SetValueERKNSt7__cxx1112basic_stringIcSt11char_traitsIcESaIcEEE(ptr noundef nonnull align 8 dereferenceable(60) %0, ptr noundef nonnull align 8 dereferenceable(32) %1) unnamed_addr #0 align 2 {
  %3 = getelementptr inbounds i8, ptr %0, i64 16
  %4 = tail call noundef nonnull align 8 dereferenceable(32) ptr @_ZNSt7__cxx1112basic_stringIcSt11char_traitsIcESaIcEEaSERKS4_(ptr noundef nonnull align 8 dereferenceable(32) %3, ptr noundef nonnull align 8 dereferenceable(32) %1)
  %5 = getelementptr inbounds i8, ptr %0, i64 48
  %6 = load ptr, ptr %5, align 8
  %7 = tail call noundef ptr @_ZNKSt7__cxx1112basic_stringIcSt11char_traitsIcESaIcEE5c_strEv(ptr noundef nonnull align 8 dereferenceable(32) %1) #7
  %8 = tail call i32 @set_field_buffer(ptr noundef %6, i32 noundef 0, ptr noundef %7)
  ret void
}

declare noundef nonnull align 8 dereferenceable(32) ptr @_ZNSt7__cxx1112basic_stringIcSt11char_traitsIcESaIcEEaSERKS4_(ptr noundef nonnull align 8 dereferenceable(32), ptr noundef nonnull align 8 dereferenceable(32)) local_unnamed_addr #2

declare i32 @set_field_buffer(ptr noundef, i32 noundef, ptr noundef) local_unnamed_addr #2

; Function Attrs: nounwind
declare noundef ptr @_ZNKSt7__cxx1112basic_stringIcSt11char_traitsIcESaIcEE5c_strEv(ptr noundef nonnull align 8 dereferenceable(32)) local_unnamed_addr #1

; Function Attrs: mustprogress nounwind uwtable
define dso_local noundef ptr @_ZN14cmCursesWidget8GetValueEv(ptr noundef nonnull align 8 dereferenceable(60) %0) unnamed_addr #3 align 2 {
  %2 = getelementptr inbounds i8, ptr %0, i64 16
  %3 = tail call noundef ptr @_ZNKSt7__cxx1112basic_stringIcSt11char_traitsIcESaIcEE5c_strEv(ptr noundef nonnull align 8 dereferenceable(32) %2) #7
  ret ptr %3
}

declare void @__cxa_pure_virtual() unnamed_addr

; Function Attrs: mustprogress nounwind uwtable
define linkonce_odr dso_local noundef zeroext i1 @_ZN14cmCursesWidget9PrintKeysEv(ptr noundef nonnull align 8 dereferenceable(60) %0) unnamed_addr #3 comdat align 2 {
  ret i1 false
}


!llvm.module.flags = !{!0, !1, !2, !3, !4}

!0 = !{i32 1, !"wchar_size", i32 4}
!1 = !{i32 8, !"PIC Level", i32 2}
!2 = !{i32 7, !"PIE Level", i32 2}
!3 = !{i32 7, !"uwtable", i32 2}
!4 = !{i32 7, !"frame-pointer", i32 2}
